target datalayout = "e-m:e-p270:32:32-p271:32:32-p272:64:64-i64:64-i128:128-f80:128-n8:16:32:64-S128"
target triple = "x86_64-pc-linux-gnu"

%struct.darktable_t = type { %struct.dt_codepath_t, i32, i32, ptr, ptr, ptr, ptr, ptr, ptr, ptr, ptr, ptr, ptr, ptr, ptr, ptr, ptr, ptr, ptr, ptr, ptr, ptr, ptr, ptr, ptr, ptr, ptr, ptr, ptr, ptr, [64 x %struct.dt_pthread_mutex_t], %struct.dt_pthread_mutex_t, %struct.dt_pthread_mutex_t, %struct.dt_pthread_mutex_t, %struct.dt_pthread_mutex_t, %struct.dt_pthread_mutex_t, ptr, ptr, ptr, ptr, ptr, ptr, ptr, ptr, ptr, ptr, ptr, ptr, ptr, %struct.dt_lua_state_t, ptr, double, ptr, i32, [47 x i32], i32, i32, ptr, ptr, %struct.dt_sys_resources_t, %struct.dt_backthumb_t, %struct.dt_gimp_t }
%struct.dt_codepath_t = type { i8, [3 x i8] }
%struct.dt_pthread_mutex_t = type { %union.pthread_mutex_t }
%union.pthread_mutex_t = type { %struct.__pthread_mutex_s }
%struct.__pthread_mutex_s = type { i32, i32, i32, i32, i32, i16, i16, %struct.__pthread_internal_list }
%struct.__pthread_internal_list = type { ptr, ptr }
%struct.dt_lua_state_t = type { i32 }
%struct.dt_sys_resources_t = type { i64, i64, ptr, ptr, i32 }
%struct.dt_backthumb_t = type { double, double, i32, i32, i32, i32 }
%struct.dt_gimp_t = type { i32, ptr, ptr, i32, i32 }
%struct._DtBauhausWidget = type { %struct._GtkDrawingArea, i32, ptr, ptr, i32, [256 x i8], i32, ptr, i32, ptr, ptr, i32, ptr, i32, i32, i32, %struct._GtkBorder, %struct._GtkBorder, i32, %union.dt_bauhaus_data_t }
%struct._GtkDrawingArea = type { %struct._GtkWidget, ptr }
%struct._GtkWidget = type { %struct._GObject, ptr }
%struct._GObject = type { %struct._GTypeInstance, i32, ptr }
%struct._GTypeInstance = type { ptr }
%struct._GtkBorder = type { i16, i16, i16, i16 }
%union.dt_bauhaus_data_t = type { %struct.dt_bauhaus_slider_data_t }
%struct.dt_bauhaus_slider_data_t = type { float, float, float, float, float, float, float, float, float, float, i32, ptr, i32, ptr, i8, ptr, float, float, i8, i32, ptr }
%struct.dt_control_t = type { i32, ptr, %struct.dt_action_t, %struct.dt_action_t, %struct.dt_action_t, %struct.dt_action_t, %struct.dt_action_t, %struct.dt_action_t, %struct.dt_action_t, %struct.dt_action_t, %struct.dt_action_t, %struct.dt_action_t, %struct.dt_action_t, ptr, ptr, ptr, i32, ptr, i32, i32, ptr, ptr, [256 x i8], i32, double, i32, i32, i64, i32, i32, i32, double, double, i32, i32, i32, i32, i32, i32, [8 x [1000 x i8]], i32, i32, %struct.dt_pthread_mutex_t, i32, i32, [2 x [300 x i8]], i32, i32, %struct.dt_pthread_mutex_t, %struct.dt_pthread_mutex_t, %struct.dt_pthread_mutex_t, double, i32, i32, i32, %struct.dt_pthread_mutex_t, %struct.dt_pthread_mutex_t, %union.pthread_cond_t, i32, ptr, i64, i64, ptr, [5 x ptr], [5 x i64], %struct.dt_pthread_mutex_t, [3 x ptr], [3 x i8], [3 x i64], %struct.anon.0, %struct.anon.2 }
%struct.dt_action_t = type { i32, ptr, ptr, ptr, ptr, ptr }
%union.pthread_cond_t = type { %struct.__pthread_cond_s }
%struct.__pthread_cond_s = type { %union.__atomic_wide_counter, %union.__atomic_wide_counter, [2 x i32], [2 x i32], i32, i32, [2 x i32] }
%union.__atomic_wide_counter = type { i64 }
%struct.anon.0 = type { ptr, i64, i64, double, %struct.dt_pthread_mutex_t, %struct.anon.1 }
%struct.anon.1 = type { ptr, ptr, ptr, ptr, ptr, ptr }
%struct.anon.2 = type { %struct.anon.3 }
%struct.anon.3 = type { ptr, ptr }
%struct.dt_bauhaus_combobox_data_t = type { i32, i32, i32, i32, ptr, i32, ptr, i32, ptr }
%struct._GPtrArray = type { ptr, i32 }
%struct.dt_bauhaus_combobox_entry_t = type { ptr, i32, i32, ptr, ptr }

@dt_bh_get_type.static_g_define_type_id = internal global i64 0, align 8
@darktable = external global %struct.darktable_t, align 8

; Function Attrs: nounwind uwtable
define i64 @dt_bh_get_type() #0 {
  %1 = alloca i32, align 4
  %2 = alloca i64, align 8
  %3 = alloca ptr, align 8
  %4 = alloca i64, align 8
  %5 = alloca i64, align 8
  call void @llvm.lifetime.start.p0(i64 8, ptr %2) #13
  call void @llvm.lifetime.start.p0(i64 8, ptr %3) #13
  store ptr @dt_bh_get_type.static_g_define_type_id, ptr %3, align 8, !tbaa !6
  %6 = load ptr, ptr %3, align 8, !tbaa !6
  %7 = load atomic i64, ptr %6 seq_cst, align 8
  store i64 %7, ptr %2, align 8
  %8 = load i64, ptr %2, align 8, !tbaa !11
  store i64 %8, ptr %4, align 8, !tbaa !11
  call void @llvm.lifetime.end.p0(i64 8, ptr %3) #13
  call void @llvm.lifetime.end.p0(i64 8, ptr %2) #13
  %9 = load i64, ptr %4, align 8, !tbaa !11
  %10 = icmp ne i64 %9, 0
  br i1 %10, label %14, label %11

11:                                               ; preds = %0
  %12 = call i32 @g_once_init_enter(ptr noundef @dt_bh_get_type.static_g_define_type_id)
  %13 = icmp ne i32 %12, 0
  br label %14

14:                                               ; preds = %11, %0
  %15 = phi i1 [ false, %0 ], [ %13, %11 ]
  %16 = zext i1 %15 to i32
  store i32 %16, ptr %1, align 4, !tbaa !13
  %17 = load i32, ptr %1, align 4, !tbaa !13
  %18 = icmp ne i32 %17, 0
  br i1 %18, label %19, label %22

19:                                               ; preds = %14
  call void @llvm.lifetime.start.p0(i64 8, ptr %5) #13
  %20 = call i64 @dt_bh_get_type_once()
  store i64 %20, ptr %5, align 8, !tbaa !11
  %21 = load i64, ptr %5, align 8, !tbaa !11
  call void @g_once_init_leave(ptr noundef @dt_bh_get_type.static_g_define_type_id, i64 noundef %21)
  call void @llvm.lifetime.end.p0(i64 8, ptr %5) #13
  br label %22

22:                                               ; preds = %19, %14
  %23 = load i64, ptr @dt_bh_get_type.static_g_define_type_id, align 8, !tbaa !11
  ret i64 %23
}

; Function Attrs: nounwind uwtable
define internal ptr @_new_combobox_entry(ptr noundef %0, i32 noundef %1, i32 noundef %2, ptr noundef %3, ptr noundef %4) #0 {
  %6 = alloca ptr, align 8
  %7 = alloca i32, align 4
  %8 = alloca i32, align 4
  %9 = alloca ptr, align 8
  %10 = alloca ptr, align 8
  %11 = alloca ptr, align 8
  store ptr %0, ptr %6, align 8, !tbaa !171
  store i32 %1, ptr %7, align 4, !tbaa !13
  store i32 %2, ptr %8, align 4, !tbaa !13
  store ptr %3, ptr %9, align 8, !tbaa !32
  store ptr %4, ptr %10, align 8, !tbaa !32
  call void @llvm.lifetime.start.p0(i64 8, ptr %11) #13
  %12 = call noalias ptr @calloc(i64 noundef 1, i64 noundef 32) #15
  store ptr %12, ptr %11, align 8, !tbaa !174
  %13 = load ptr, ptr %11, align 8, !tbaa !174
  %14 = icmp ne ptr %13, null
  br i1 %14, label %15, label %32

15:                                               ; preds = %5
  %16 = load ptr, ptr %6, align 8, !tbaa !171
  %17 = call noalias ptr @g_strdup(ptr noundef %16)
  %18 = load ptr, ptr %11, align 8, !tbaa !174
  %19 = getelementptr inbounds nuw %struct.dt_bauhaus_combobox_entry_t, ptr %18, i32 0, i32 0
  store ptr %17, ptr %19, align 8, !tbaa !176
  %20 = load i32, ptr %7, align 4, !tbaa !13
  %21 = load ptr, ptr %11, align 8, !tbaa !174
  %22 = getelementptr inbounds nuw %struct.dt_bauhaus_combobox_entry_t, ptr %21, i32 0, i32 1
  store i32 %20, ptr %22, align 8, !tbaa !178
  %23 = load i32, ptr %8, align 4, !tbaa !13
  %24 = load ptr, ptr %11, align 8, !tbaa !174
  %25 = getelementptr inbounds nuw %struct.dt_bauhaus_combobox_entry_t, ptr %24, i32 0, i32 2
  store i32 %23, ptr %25, align 4, !tbaa !161
  %26 = load ptr, ptr %9, align 8, !tbaa !32
  %27 = load ptr, ptr %11, align 8, !tbaa !174
  %28 = getelementptr inbounds nuw %struct.dt_bauhaus_combobox_entry_t, ptr %27, i32 0, i32 3
  store ptr %26, ptr %28, align 8, !tbaa !275
  %29 = load ptr, ptr %10, align 8, !tbaa !32
  %30 = load ptr, ptr %11, align 8, !tbaa !174
  %31 = getelementptr inbounds nuw %struct.dt_bauhaus_combobox_entry_t, ptr %30, i32 0, i32 4
  store ptr %29, ptr %31, align 8, !tbaa !274
  br label %32

32:                                               ; preds = %15, %5
  %33 = load ptr, ptr %11, align 8, !tbaa !174
  call void @llvm.lifetime.end.p0(i64 8, ptr %11) #13
  ret ptr %33
}

; Function Attrs: nounwind uwtable
define internal ptr @_combobox_entry(ptr noundef %0, i32 noundef %1) #0 {
  %3 = alloca ptr, align 8
  %4 = alloca i32, align 4
  store ptr %0, ptr %3, align 8, !tbaa !153
  store i32 %1, ptr %4, align 4, !tbaa !13
  %5 = load ptr, ptr %3, align 8, !tbaa !153
  %6 = getelementptr inbounds nuw %struct.dt_bauhaus_combobox_data_t, ptr %5, i32 0, i32 6
  %7 = load ptr, ptr %6, align 8, !tbaa !156
  %8 = getelementptr inbounds nuw %struct._GPtrArray, ptr %7, i32 0, i32 0
  %9 = load ptr, ptr %8, align 8, !tbaa !289
  %10 = load i32, ptr %4, align 4, !tbaa !13
  %11 = sext i32 %10 to i64
  %12 = getelementptr inbounds ptr, ptr %9, i64 %11
  %13 = load ptr, ptr %12, align 8, !tbaa !32
  ret ptr %13
}

; Function Attrs: inlinehint nounwind uwtable
define internal ptr @DT_BAUHAUS_WIDGET(ptr noundef %0) #4 {
  %2 = alloca ptr, align 8
  store ptr %0, ptr %2, align 8, !tbaa !32
  %3 = load ptr, ptr %2, align 8, !tbaa !32
  %4 = call i64 @dt_bh_get_type()
  %5 = call ptr @g_type_check_instance_cast(ptr noundef %3, i64 noundef %4)
  ret ptr %5
}

; Function Attrs: nounwind uwtable
define void @dt_bauhaus_combobox_add_full(ptr noundef %0, ptr noundef %1, i32 noundef %2, ptr noundef %3, ptr noundef %4, i32 noundef %5) #0 {
  %7 = alloca ptr, align 8
  %8 = alloca ptr, align 8
  %9 = alloca i32, align 4
  %10 = alloca ptr, align 8
  %11 = alloca ptr, align 8
  %12 = alloca i32, align 4
  %13 = alloca ptr, align 8
  %14 = alloca i32, align 4
  %15 = alloca ptr, align 8
  %16 = alloca ptr, align 8
  store ptr %0, ptr %7, align 8, !tbaa !15
  store ptr %1, ptr %8, align 8, !tbaa !171
  store i32 %2, ptr %9, align 4, !tbaa !13
  store ptr %3, ptr %10, align 8, !tbaa !32
  store ptr %4, ptr %11, align 8, !tbaa !32
  store i32 %5, ptr %12, align 4, !tbaa !13
  %17 = load ptr, ptr getelementptr inbounds nuw (%struct.darktable_t, ptr @darktable, i32 0, i32 12), align 8, !tbaa !113
  %18 = getelementptr inbounds nuw %struct.dt_control_t, ptr %17, i32 0, i32 0
  %19 = load i32, ptr %18, align 8, !tbaa !280
  %20 = icmp ne i32 %19, 0
  br i1 %20, label %21, label %22

21:                                               ; preds = %6
  br label %99

22:                                               ; preds = %6
  call void @llvm.lifetime.start.p0(i64 8, ptr %13) #13
  %23 = load ptr, ptr %7, align 8, !tbaa !15
  %24 = call ptr @DT_BAUHAUS_WIDGET(ptr noundef %23)
  store ptr %24, ptr %13, align 8, !tbaa !17
  %25 = load ptr, ptr %13, align 8, !tbaa !17
  %26 = getelementptr inbounds nuw %struct._DtBauhausWidget, ptr %25, i32 0, i32 1
  %27 = load i32, ptr %26, align 8, !tbaa !139
  %28 = icmp ne i32 %27, 2
  br i1 %28, label %29, label %30

29:                                               ; preds = %22
  store i32 1, ptr %14, align 4
  br label %97

30:                                               ; preds = %22
  call void @llvm.lifetime.start.p0(i64 8, ptr %15) #13
  %31 = load ptr, ptr %13, align 8, !tbaa !17
  %32 = getelementptr inbounds nuw %struct._DtBauhausWidget, ptr %31, i32 0, i32 19
  store ptr %32, ptr %15, align 8, !tbaa !153
  %33 = load ptr, ptr %10, align 8, !tbaa !32
  %34 = icmp ne ptr %33, null
  br i1 %34, label %60, label %35

35:                                               ; preds = %30
  %36 = load ptr, ptr %15, align 8, !tbaa !153
  %37 = getelementptr inbounds nuw %struct.dt_bauhaus_combobox_data_t, ptr %36, i32 0, i32 6
  %38 = load ptr, ptr %37, align 8, !tbaa !156
  %39 = getelementptr inbounds nuw %struct._GPtrArray, ptr %38, i32 0, i32 1
  %40 = load i32, ptr %39, align 8, !tbaa !159
  %41 = icmp ugt i32 %40, 0
  br i1 %41, label %42, label %60

42:                                               ; preds = %35
  %43 = load ptr, ptr %15, align 8, !tbaa !153
  %44 = call ptr @_combobox_entry(ptr noundef %43, i32 noundef 0)
  %45 = getelementptr inbounds nuw %struct.dt_bauhaus_combobox_entry_t, ptr %44, i32 0, i32 3
  %46 = load ptr, ptr %45, align 8, !tbaa !275
  %47 = icmp ne ptr %46, null
  br i1 %47, label %60, label %48

48:                                               ; preds = %42
  %49 = load ptr, ptr %15, align 8, !tbaa !153
  %50 = load ptr, ptr %15, align 8, !tbaa !153
  %51 = getelementptr inbounds nuw %struct.dt_bauhaus_combobox_data_t, ptr %50, i32 0, i32 6
  %52 = load ptr, ptr %51, align 8, !tbaa !156
  %53 = getelementptr inbounds nuw %struct._GPtrArray, ptr %52, i32 0, i32 1
  %54 = load i32, ptr %53, align 8, !tbaa !159
  %55 = sub i32 %54, 1
  %56 = call ptr @_combobox_entry(ptr noundef %49, i32 noundef %55)
  %57 = getelementptr inbounds nuw %struct.dt_bauhaus_combobox_entry_t, ptr %56, i32 0, i32 3
  %58 = load ptr, ptr %57, align 8, !tbaa !275
  %59 = getelementptr inbounds i8, ptr %58, i64 1
  store ptr %59, ptr %10, align 8, !tbaa !32
  br label %60

60:                                               ; preds = %48, %42, %35, %30
  call void @llvm.lifetime.start.p0(i64 8, ptr %16) #13
  %61 = load ptr, ptr %8, align 8, !tbaa !171
  %62 = load i32, ptr %9, align 4, !tbaa !13
  %63 = load i32, ptr %12, align 4, !tbaa !13
  %64 = load ptr, ptr %10, align 8, !tbaa !32
  %65 = load ptr, ptr %11, align 8, !tbaa !32
  %66 = call ptr @_new_combobox_entry(ptr noundef %61, i32 noundef %62, i32 noundef %63, ptr noundef %64, ptr noundef %65)
  store ptr %66, ptr %16, align 8, !tbaa !174
  %67 = load ptr, ptr %16, align 8, !tbaa !174
  %68 = icmp ne ptr %67, null
  br i1 %68, label %69, label %74

69:                                               ; preds = %60
  %70 = load ptr, ptr %15, align 8, !tbaa !153
  %71 = getelementptr inbounds nuw %struct.dt_bauhaus_combobox_data_t, ptr %70, i32 0, i32 6
  %72 = load ptr, ptr %71, align 8, !tbaa !156
  %73 = load ptr, ptr %16, align 8, !tbaa !174
  call void @g_ptr_array_add(ptr noundef %72, ptr noundef %73)
  br label %74

74:                                               ; preds = %69, %60
  %75 = load ptr, ptr %15, align 8, !tbaa !153
  %76 = getelementptr inbounds nuw %struct.dt_bauhaus_combobox_data_t, ptr %75, i32 0, i32 0
  %77 = load i32, ptr %76, align 8, !tbaa !163
  %78 = icmp slt i32 %77, 0
  br i1 %78, label %79, label %82

79:                                               ; preds = %74
  %80 = load ptr, ptr %15, align 8, !tbaa !153
  %81 = getelementptr inbounds nuw %struct.dt_bauhaus_combobox_data_t, ptr %80, i32 0, i32 0
  store i32 0, ptr %81, align 8, !tbaa !163
  br label %82

82:                                               ; preds = %79, %74
  %83 = load ptr, ptr %15, align 8, !tbaa !153
  %84 = getelementptr inbounds nuw %struct.dt_bauhaus_combobox_data_t, ptr %83, i32 0, i32 1
  %85 = load i32, ptr %84, align 4, !tbaa !205
  %86 = icmp eq i32 %85, -1
  br i1 %86, label %87, label %96

87:                                               ; preds = %82
  %88 = load i32, ptr %12, align 4, !tbaa !13
  %89 = icmp ne i32 %88, 0
  br i1 %89, label %90, label %96

90:                                               ; preds = %87
  %91 = load ptr, ptr %10, align 8, !tbaa !32
  %92 = ptrtoint ptr %91 to i64
  %93 = trunc i64 %92 to i32
  %94 = load ptr, ptr %15, align 8, !tbaa !153
  %95 = getelementptr inbounds nuw %struct.dt_bauhaus_combobox_data_t, ptr %94, i32 0, i32 1
  store i32 %93, ptr %95, align 4, !tbaa !205
  br label %96

96:                                               ; preds = %90, %87, %82
  call void @llvm.lifetime.end.p0(i64 8, ptr %16) #13
  call void @llvm.lifetime.end.p0(i64 8, ptr %15) #13
  store i32 0, ptr %14, align 4
  br label %97

97:                                               ; preds = %96, %29
  call void @llvm.lifetime.end.p0(i64 8, ptr %13) #13
  %98 = load i32, ptr %14, align 4
  switch i32 %98, label %100 [
    i32 0, label %99
    i32 1, label %99
  ]

99:                                               ; preds = %21, %97, %97
  ret void

100:                                              ; preds = %97
  unreachable
}