; Function Attrs: nounwind uwtable
define void @dt_bauhaus_combobox_add_full(ptr noundef %0, ptr noundef %1, i32 noundef %2, ptr noundef %3, ptr noundef %4, i32 noundef %5) local_unnamed_addr #0 {
  %7 = load ptr, ptr getelementptr inbounds nuw (i8, ptr @darktable, i64 88), align 8, !tbaa !91
  %8 = load i32, ptr %7, align 8, !tbaa !227
  %.not = icmp eq i32 %8, 0
  br i1 %.not, label %9, label %59

9:                                                ; preds = %6
  %10 = load atomic i64, ptr @dt_bh_get_type.static_g_define_type_id seq_cst, align 8
  %.not.i.i = icmp eq i64 %10, 0
  br i1 %.not.i.i, label %11, label %DT_BAUHAUS_WIDGET.exit

11:                                               ; preds = %9
  %12 = tail call i32 @g_once_init_enter(ptr noundef nonnull @dt_bh_get_type.static_g_define_type_id) #19
  %.not4.i.i = icmp eq i32 %12, 0
  br i1 %.not4.i.i, label %DT_BAUHAUS_WIDGET.exit, label %13

13:                                               ; preds = %11
  %14 = tail call fastcc i64 @dt_bh_get_type_once()
  tail call void @g_once_init_leave(ptr noundef nonnull @dt_bh_get_type.static_g_define_type_id, i64 noundef %14) #19
  br label %DT_BAUHAUS_WIDGET.exit

DT_BAUHAUS_WIDGET.exit:                           ; preds = %9, %11, %13
  %15 = load i64, ptr @dt_bh_get_type.static_g_define_type_id, align 8, !tbaa !6
  %16 = tail call ptr @g_type_check_instance_cast(ptr noundef %0, i64 noundef %15) #19
  %17 = getelementptr inbounds nuw i8, ptr %16, i64 40
  %18 = load i32, ptr %17, align 8, !tbaa !105
  %.not24 = icmp eq i32 %18, 2
  br i1 %.not24, label %19, label %59

19:                                               ; preds = %DT_BAUHAUS_WIDGET.exit
  %20 = getelementptr inbounds nuw i8, ptr %16, i64 408
  %.not25 = icmp eq ptr %3, null
  br i1 %.not25, label %21, label %38

21:                                               ; preds = %19
  %22 = getelementptr i8, ptr %16, i64 440
  %23 = load ptr, ptr %22, align 8, !tbaa !128
  %24 = getelementptr inbounds nuw i8, ptr %23, i64 8
  %25 = load i32, ptr %24, align 8, !tbaa !131
  %.not26 = icmp eq i32 %25, 0
  br i1 %.not26, label %38, label %26

26:                                               ; preds = %21
  %.val.val = load ptr, ptr %23, align 8, !tbaa !133
  %27 = load ptr, ptr %.val.val, align 8, !tbaa !134
  %28 = getelementptr inbounds nuw i8, ptr %27, i64 16
  %29 = load ptr, ptr %28, align 8, !tbaa !209
  %.not27 = icmp eq ptr %29, null
  br i1 %.not27, label %30, label %38

30:                                               ; preds = %26
  %31 = add i32 %25, -1
  %32 = sext i32 %31 to i64
  %33 = getelementptr inbounds ptr, ptr %.val.val, i64 %32
  %34 = load ptr, ptr %33, align 8, !tbaa !134
  %35 = getelementptr inbounds nuw i8, ptr %34, i64 16
  %36 = load ptr, ptr %35, align 8, !tbaa !209
  %37 = getelementptr inbounds nuw i8, ptr %36, i64 1
  br label %38

38:                                               ; preds = %30, %26, %21, %19
  %.0 = phi ptr [ %3, %19 ], [ null, %26 ], [ %37, %30 ], [ null, %21 ]
  %39 = tail call noalias dereferenceable_or_null(32) ptr @calloc(i64 noundef 1, i64 noundef 32) #21
  %.not.i = icmp eq ptr %39, null
  br i1 %.not.i, label %_new_combobox_entry.exit.thread, label %40

40:                                               ; preds = %38
  %41 = tail call noalias ptr @g_strdup(ptr noundef %1) #19
  store ptr %41, ptr %39, align 8, !tbaa !149
  %42 = getelementptr inbounds nuw i8, ptr %39, i64 8
  store i32 %2, ptr %42, align 8, !tbaa !151
  %43 = getelementptr inbounds nuw i8, ptr %39, i64 12
  store i32 %5, ptr %43, align 4, !tbaa !135
  %44 = getelementptr inbounds nuw i8, ptr %39, i64 16
  store ptr %.0, ptr %44, align 8, !tbaa !209
  %45 = getelementptr inbounds nuw i8, ptr %39, i64 24
  store ptr %4, ptr %45, align 8, !tbaa !226
  %46 = getelementptr inbounds nuw i8, ptr %16, i64 440
  %47 = load ptr, ptr %46, align 8, !tbaa !128
  tail call void @g_ptr_array_add(ptr noundef %47, ptr noundef nonnull %39) #19
  br label %_new_combobox_entry.exit.thread

_new_combobox_entry.exit.thread:                  ; preds = %38, %40
  %48 = load i32, ptr %20, align 8, !tbaa !137
  %49 = icmp slt i32 %48, 0
  br i1 %49, label %50, label %51

50:                                               ; preds = %_new_combobox_entry.exit.thread
  store i32 0, ptr %20, align 8, !tbaa !137
  br label %51

51:                                               ; preds = %50, %_new_combobox_entry.exit.thread
  %52 = getelementptr inbounds nuw i8, ptr %16, i64 412
  %53 = load i32, ptr %52, align 4, !tbaa !169
  %54 = icmp eq i32 %53, -1
  %55 = icmp ne i32 %5, 0
  %or.cond = and i1 %55, %54
  br i1 %or.cond, label %56, label %59

56:                                               ; preds = %51
  %57 = ptrtoint ptr %.0 to i64
  %58 = trunc i64 %57 to i32
  store i32 %58, ptr %52, align 4, !tbaa !169
  br label %59

59:                                               ; preds = %DT_BAUHAUS_WIDGET.exit, %56, %51, %6
  ret void
}